target datalayout = "e-m:e-p270:32:32-p271:32:32-p272:64:64-i64:64-i128:128-f80:128-n8:16:32:64-S128"
target triple = "x86_64-pc-linux-gnu"

@.str = private unnamed_addr constant [9 x i8] c"%s(): %s\00", align 1
@.str.1 = private unnamed_addr constant [17 x i8] c"Invalid argument\00", align 1
@tj3JPEGBufSize.FUNCTION_NAME = internal constant [15 x i8] c"tj3JPEGBufSize\00", align 1
@tjMCUWidth = internal constant [7 x i32] [i32 8, i32 16, i32 16, i32 8, i32 8, i32 32, i32 8], align 16
@tjMCUHeight = internal constant [7 x i32] [i32 8, i32 8, i32 16, i32 8, i32 16, i32 8, i32 32], align 16
@tjBufSize.FUNCTION_NAME = internal constant [10 x i8] c"tjBufSize\00", align 1

; Function Attrs: nounwind uwtable
define i64 @tj3JPEGBufSize(i32 noundef %0, i32 noundef %1, i32 noundef %2) #0 {
  %4 = alloca i32, align 4
  %5 = alloca i32, align 4
  %6 = alloca i32, align 4
  %7 = alloca i64, align 8
  %8 = alloca i32, align 4
  %9 = alloca i32, align 4
  %10 = alloca i32, align 4
  store i32 %0, ptr %4, align 4
  store i32 %1, ptr %5, align 4
  store i32 %2, ptr %6, align 4
  store i64 0, ptr %7, align 8
  %11 = load i32, ptr %4, align 4
  %12 = icmp slt i32 %11, 1
  br i1 %12, label %22, label %13

13:                                               ; preds = %3
  %14 = load i32, ptr %5, align 4
  %15 = icmp slt i32 %14, 1
  br i1 %15, label %22, label %16

16:                                               ; preds = %13
  %17 = load i32, ptr %6, align 4
  %18 = icmp slt i32 %17, -1
  br i1 %18, label %22, label %19

19:                                               ; preds = %16
  %20 = load i32, ptr %6, align 4
  %21 = icmp sge i32 %20, 7
  br i1 %21, label %22, label %26

22:                                               ; preds = %19, %16, %13, %3
  %23 = call align 16 ptr @llvm.threadlocal.address.p0(ptr align 16 @errStr)
  %24 = getelementptr inbounds [200 x i8], ptr %23, i64 0, i64 0
  %25 = call i32 (ptr, i64, ptr, ...) @snprintf(ptr noundef %24, i64 noundef 200, ptr noundef @.str, ptr noundef @tj3JPEGBufSize.FUNCTION_NAME, ptr noundef @.str.1) #11
  store i64 0, ptr %7, align 8
  br label %72

26:                                               ; preds = %19
  %27 = load i32, ptr %6, align 4
  %28 = icmp eq i32 %27, -1
  br i1 %28, label %29, label %30

29:                                               ; preds = %26
  store i32 0, ptr %6, align 4
  br label %30

30:                                               ; preds = %29, %26
  %31 = load i32, ptr %6, align 4
  %32 = sext i32 %31 to i64
  %33 = getelementptr inbounds [7 x i32], ptr @tjMCUWidth, i64 0, i64 %32
  %34 = load i32, ptr %33, align 4
  store i32 %34, ptr %8, align 4
  %35 = load i32, ptr %6, align 4
  %36 = sext i32 %35 to i64
  %37 = getelementptr inbounds [7 x i32], ptr @tjMCUHeight, i64 0, i64 %36
  %38 = load i32, ptr %37, align 4
  store i32 %38, ptr %9, align 4
  %39 = load i32, ptr %6, align 4
  %40 = icmp eq i32 %39, 3
  br i1 %40, label %41, label %42

41:                                               ; preds = %30
  br label %47

42:                                               ; preds = %30
  %43 = load i32, ptr %8, align 4
  %44 = load i32, ptr %9, align 4
  %45 = mul nsw i32 %43, %44
  %46 = sdiv i32 256, %45
  br label %47

47:                                               ; preds = %42, %41
  %48 = phi i32 [ 0, %41 ], [ %46, %42 ]
  store i32 %48, ptr %10, align 4
  %49 = load i32, ptr %4, align 4
  %50 = load i32, ptr %8, align 4
  %51 = add nsw i32 %49, %50
  %52 = sub nsw i32 %51, 1
  %53 = load i32, ptr %8, align 4
  %54 = sub nsw i32 %53, 1
  %55 = xor i32 %54, -1
  %56 = and i32 %52, %55
  %57 = load i32, ptr %5, align 4
  %58 = load i32, ptr %9, align 4
  %59 = add nsw i32 %57, %58
  %60 = sub nsw i32 %59, 1
  %61 = load i32, ptr %9, align 4
  %62 = sub nsw i32 %61, 1
  %63 = xor i32 %62, -1
  %64 = and i32 %60, %63
  %65 = mul nsw i32 %56, %64
  %66 = sext i32 %65 to i64
  %67 = load i32, ptr %10, align 4
  %68 = sext i32 %67 to i64
  %69 = add i64 2, %68
  %70 = mul i64 %66, %69
  %71 = add i64 %70, 2048
  store i64 %71, ptr %7, align 8
  br label %72

72:                                               ; preds = %47, %22
  %73 = load i64, ptr %7, align 8
  ret i64 %73
}

; Function Attrs: nounwind uwtable
define i64 @tjBufSize(i32 noundef %0, i32 noundef %1, i32 noundef %2) #0 {
  %4 = alloca i32, align 4
  %5 = alloca i32, align 4
  %6 = alloca i32, align 4
  %7 = alloca i64, align 8
  store i32 %0, ptr %4, align 4
  store i32 %1, ptr %5, align 4
  store i32 %2, ptr %6, align 4
  %8 = load i32, ptr %6, align 4
  %9 = icmp slt i32 %8, 0
  br i1 %9, label %10, label %14

10:                                               ; preds = %3
  %11 = call align 16 ptr @llvm.threadlocal.address.p0(ptr align 16 @errStr)
  %12 = getelementptr inbounds [200 x i8], ptr %11, i64 0, i64 0
  %13 = call i32 (ptr, i64, ptr, ...) @snprintf(ptr noundef %12, i64 noundef 200, ptr noundef @.str, ptr noundef @tjBufSize.FUNCTION_NAME, ptr noundef @.str.1) #11
  store i64 0, ptr %7, align 8
  br label %19

14:                                               ; preds = %3
  %15 = load i32, ptr %4, align 4
  %16 = load i32, ptr %5, align 4
  %17 = load i32, ptr %6, align 4
  %18 = call i64 @tj3JPEGBufSize(i32 noundef %15, i32 noundef %16, i32 noundef %17)
  store i64 %18, ptr %7, align 8
  br label %19

19:                                               ; preds = %14, %10
  %20 = load i64, ptr %7, align 8
  %21 = icmp eq i64 %20, 0
  br i1 %21, label %22, label %23

22:                                               ; preds = %19
  br label %25

23:                                               ; preds = %19
  %24 = load i64, ptr %7, align 8
  br label %25

25:                                               ; preds = %23, %22
  %26 = phi i64 [ -1, %22 ], [ %24, %23 ]
  ret i64 %26
}