; Function Attrs: nofree nounwind uwtable
define range(i64 -554050779136, 554050782975) i64 @tjBufSize(i32 noundef %0, i32 noundef %1, i32 noundef %2) local_unnamed_addr #6 {
  %4 = icmp slt i32 %2, 0
  br i1 %4, label %tj3JPEGBufSize.exit.thread.sink.split, label %5

5:                                                ; preds = %3
  %6 = icmp slt i32 %0, 1
  %7 = icmp slt i32 %1, 1
  %or.cond.i = or i1 %6, %7
  %8 = add nsw i32 %2, -7
  %9 = icmp ult i32 %8, -8
  %or.cond5.i = or i1 %or.cond.i, %9
  br i1 %or.cond5.i, label %tj3JPEGBufSize.exit.thread.sink.split, label %10

10:                                               ; preds = %5
  %11 = zext nneg i32 %2 to i64
  %12 = getelementptr inbounds [7 x i32], ptr @tjMCUWidth, i64 0, i64 %11
  %13 = load i32, ptr %12, align 4
  %14 = getelementptr inbounds [7 x i32], ptr @tjMCUHeight, i64 0, i64 %11
  %15 = load i32, ptr %14, align 4
  %16 = icmp eq i32 %2, 3
  br i1 %16, label %tj3JPEGBufSize.exit, label %17

17:                                               ; preds = %10
  %18 = mul nsw i32 %15, %13
  %19 = sdiv i32 256, %18
  %narrow.i = add nsw i32 %19, 2
  %20 = sext i32 %narrow.i to i64
  br label %tj3JPEGBufSize.exit

tj3JPEGBufSize.exit:                              ; preds = %10, %17
  %21 = phi i64 [ %20, %17 ], [ 2, %10 ]
  %22 = add nsw i32 %0, -1
  %23 = add i32 %22, %13
  %24 = sub i32 0, %13
  %25 = and i32 %23, %24
  %26 = add nsw i32 %1, -1
  %27 = add i32 %26, %15
  %28 = sub i32 0, %15
  %29 = and i32 %27, %28
  %30 = mul nsw i32 %29, %25
  %31 = sext i32 %30 to i64
  %32 = mul nsw i64 %21, %31
  %.fr9 = freeze i64 %32
  %33 = add i64 %.fr9, 2048
  %34 = icmp eq i64 %33, 0
  br i1 %34, label %tj3JPEGBufSize.exit.thread, label %37

tj3JPEGBufSize.exit.thread.sink.split:            ; preds = %5, %3
  %tj3JPEGBufSize.FUNCTION_NAME.sink = phi ptr [ @tjBufSize.FUNCTION_NAME, %3 ], [ @tj3JPEGBufSize.FUNCTION_NAME, %5 ]
  %35 = tail call align 16 ptr @llvm.threadlocal.address.p0(ptr align 16 @errStr)
  %36 = tail call i32 (ptr, i64, ptr, ...) @snprintf(ptr noundef nonnull dereferenceable(1) %35, i64 noundef 200, ptr noundef nonnull @.str, ptr noundef nonnull %tj3JPEGBufSize.FUNCTION_NAME.sink, ptr noundef nonnull @.str.1) #26
  br label %tj3JPEGBufSize.exit.thread

tj3JPEGBufSize.exit.thread:                       ; preds = %tj3JPEGBufSize.exit.thread.sink.split, %tj3JPEGBufSize.exit
  br label %37

37:                                               ; preds = %tj3JPEGBufSize.exit, %tj3JPEGBufSize.exit.thread
  %38 = phi i64 [ -1, %tj3JPEGBufSize.exit.thread ], [ %33, %tj3JPEGBufSize.exit ]
  ret i64 %38
}